target datalayout = "e-m:e-p270:32:32-p271:32:32-p272:64:64-i64:64-i128:128-f80:128-n8:16:32:64-S128"
target triple = "x86_64-pc-linux-gnu"

%"class.CGAL::Handle" = type { ptr }
%"class.CGAL::Rep" = type <{ ptr, %"struct.std::atomic.72", [4 x i8] }>
%"struct.std::atomic.72" = type { %"struct.std::__atomic_base.73" }
%"struct.std::__atomic_base.73" = type { i32 }

@__libc_single_threaded = external global i8, align 1

; Function Attrs: mustprogress nounwind uwtable
define linkonce_odr dso_local noundef i32 @_ZStanSt12memory_orderSt23__memory_order_modifier(i32 noundef %0, i32 noundef %1) #1 comdat {
  %3 = alloca i32, align 4
  %4 = alloca i32, align 4
  store i32 %0, ptr %3, align 4, !tbaa !601
  store i32 %1, ptr %4, align 4, !tbaa !603
  %5 = load i32, ptr %3, align 4, !tbaa !601
  %6 = load i32, ptr %4, align 4, !tbaa !603
  %7 = and i32 %5, %6
  ret i32 %7
}

; Function Attrs: alwaysinline mustprogress nounwind uwtable
define linkonce_odr dso_local void @_ZSt19atomic_thread_fenceSt12memory_order(i32 noundef %0) #11 comdat {
  %2 = alloca i32, align 4
  store i32 %0, ptr %2, align 4, !tbaa !601
  %3 = load i32, ptr %2, align 4, !tbaa !601
  switch i32 %3, label %8 [
    i32 1, label %4
    i32 2, label %4
    i32 3, label %5
    i32 4, label %6
    i32 5, label %7
  ]

4:                                                ; preds = %1, %1
  fence acquire
  br label %8

5:                                                ; preds = %1
  fence release
  br label %8

6:                                                ; preds = %1
  fence acq_rel
  br label %8

7:                                                ; preds = %1
  fence seq_cst
  br label %8

8:                                                ; preds = %7, %6, %5, %4, %1
  ret void
}

; Function Attrs: alwaysinline mustprogress nounwind uwtable
define linkonce_odr dso_local noundef i32 @_ZNSt13__atomic_baseIiE9fetch_subEiSt12memory_order(ptr noundef nonnull align 4 dereferenceable(4) %0, i32 noundef %1, i32 noundef %2) #11 comdat align 2 {
  %4 = alloca ptr, align 8
  %5 = alloca i32, align 4
  %6 = alloca i32, align 4
  %7 = alloca i32, align 4
  %8 = alloca i32, align 4
  store ptr %0, ptr %4, align 8, !tbaa !655
  store i32 %1, ptr %5, align 4, !tbaa !15
  store i32 %2, ptr %6, align 4, !tbaa !601
  %9 = load ptr, ptr %4, align 8
  %10 = getelementptr inbounds nuw %"struct.std::__atomic_base.73", ptr %9, i32 0, i32 0
  %11 = load i32, ptr %6, align 4, !tbaa !601
  %12 = load i32, ptr %5, align 4, !tbaa !15
  store i32 %12, ptr %7, align 4, !tbaa !15
  switch i32 %11, label %13 [
    i32 1, label %16
    i32 2, label %16
    i32 3, label %19
    i32 4, label %22
    i32 5, label %25
  ]

13:                                               ; preds = %3
  %14 = load i32, ptr %7, align 4
  %15 = atomicrmw sub ptr %10, i32 %14 monotonic, align 4
  store i32 %15, ptr %8, align 4
  br label %28

16:                                               ; preds = %3, %3
  %17 = load i32, ptr %7, align 4
  %18 = atomicrmw sub ptr %10, i32 %17 acquire, align 4
  store i32 %18, ptr %8, align 4
  br label %28

19:                                               ; preds = %3
  %20 = load i32, ptr %7, align 4
  %21 = atomicrmw sub ptr %10, i32 %20 release, align 4
  store i32 %21, ptr %8, align 4
  br label %28

22:                                               ; preds = %3
  %23 = load i32, ptr %7, align 4
  %24 = atomicrmw sub ptr %10, i32 %23 acq_rel, align 4
  store i32 %24, ptr %8, align 4
  br label %28

25:                                               ; preds = %3
  %26 = load i32, ptr %7, align 4
  %27 = atomicrmw sub ptr %10, i32 %26 seq_cst, align 4
  store i32 %27, ptr %8, align 4
  br label %28

28:                                               ; preds = %25, %22, %19, %16, %13
  %29 = load i32, ptr %8, align 4, !tbaa !15
  ret i32 %29
}

; Function Attrs: alwaysinline mustprogress nounwind uwtable
define linkonce_odr dso_local noundef i32 @_ZNSt13__atomic_baseIiE9fetch_addEiSt12memory_order(ptr noundef nonnull align 4 dereferenceable(4) %0, i32 noundef %1, i32 noundef %2) #11 comdat align 2 {
  %4 = alloca ptr, align 8
  %5 = alloca i32, align 4
  %6 = alloca i32, align 4
  %7 = alloca i32, align 4
  %8 = alloca i32, align 4
  store ptr %0, ptr %4, align 8, !tbaa !655
  store i32 %1, ptr %5, align 4, !tbaa !15
  store i32 %2, ptr %6, align 4, !tbaa !601
  %9 = load ptr, ptr %4, align 8
  %10 = getelementptr inbounds nuw %"struct.std::__atomic_base.73", ptr %9, i32 0, i32 0
  %11 = load i32, ptr %6, align 4, !tbaa !601
  %12 = load i32, ptr %5, align 4, !tbaa !15
  store i32 %12, ptr %7, align 4, !tbaa !15
  switch i32 %11, label %13 [
    i32 1, label %16
    i32 2, label %16
    i32 3, label %19
    i32 4, label %22
    i32 5, label %25
  ]

13:                                               ; preds = %3
  %14 = load i32, ptr %7, align 4
  %15 = atomicrmw add ptr %10, i32 %14 monotonic, align 4
  store i32 %15, ptr %8, align 4
  br label %28

16:                                               ; preds = %3, %3
  %17 = load i32, ptr %7, align 4
  %18 = atomicrmw add ptr %10, i32 %17 acquire, align 4
  store i32 %18, ptr %8, align 4
  br label %28

19:                                               ; preds = %3
  %20 = load i32, ptr %7, align 4
  %21 = atomicrmw add ptr %10, i32 %20 release, align 4
  store i32 %21, ptr %8, align 4
  br label %28

22:                                               ; preds = %3
  %23 = load i32, ptr %7, align 4
  %24 = atomicrmw add ptr %10, i32 %23 acq_rel, align 4
  store i32 %24, ptr %8, align 4
  br label %28

25:                                               ; preds = %3
  %26 = load i32, ptr %7, align 4
  %27 = atomicrmw add ptr %10, i32 %26 seq_cst, align 4
  store i32 %27, ptr %8, align 4
  br label %28

28:                                               ; preds = %25, %22, %19, %16, %13
  %29 = load i32, ptr %8, align 4, !tbaa !15
  ret i32 %29
}

; Function Attrs: alwaysinline mustprogress nounwind uwtable
define linkonce_odr dso_local void @_ZNSt13__atomic_baseIiE5storeEiSt12memory_order(ptr noundef nonnull align 4 dereferenceable(4) %0, i32 noundef %1, i32 noundef %2) #11 comdat align 2 {
  %4 = alloca ptr, align 8
  %5 = alloca i32, align 4
  %6 = alloca i32, align 4
  %7 = alloca i32, align 4
  %8 = alloca i32, align 4
  store ptr %0, ptr %4, align 8, !tbaa !655
  store i32 %1, ptr %5, align 4, !tbaa !15
  store i32 %2, ptr %6, align 4, !tbaa !601
  %9 = load ptr, ptr %4, align 8
  call void @llvm.lifetime.start.p0(i64 4, ptr %7) #21
  %10 = load i32, ptr %6, align 4, !tbaa !601
  %11 = call noundef i32 @_ZStanSt12memory_orderSt23__memory_order_modifier(i32 noundef %10, i32 noundef 65535)
  store i32 %11, ptr %7, align 4, !tbaa !601
  br label %12

12:                                               ; preds = %3
  br label %13

13:                                               ; preds = %12
  br label %14

14:                                               ; preds = %13
  br label %15

15:                                               ; preds = %14
  br label %16

16:                                               ; preds = %15
  br label %17

17:                                               ; preds = %16
  br label %18

18:                                               ; preds = %17
  br label %19

19:                                               ; preds = %18
  br label %20

20:                                               ; preds = %19
  %21 = getelementptr inbounds nuw %"struct.std::__atomic_base.73", ptr %9, i32 0, i32 0
  %22 = load i32, ptr %6, align 4, !tbaa !601
  %23 = load i32, ptr %5, align 4, !tbaa !15
  store i32 %23, ptr %8, align 4, !tbaa !15
  switch i32 %22, label %24 [
    i32 3, label %26
    i32 5, label %28
  ]

24:                                               ; preds = %20
  %25 = load i32, ptr %8, align 4
  store atomic i32 %25, ptr %21 monotonic, align 4
  br label %30

26:                                               ; preds = %20
  %27 = load i32, ptr %8, align 4
  store atomic i32 %27, ptr %21 release, align 4
  br label %30

28:                                               ; preds = %20
  %29 = load i32, ptr %8, align 4
  store atomic i32 %29, ptr %21 seq_cst, align 4
  br label %30

30:                                               ; preds = %28, %26, %24
  call void @llvm.lifetime.end.p0(i64 4, ptr %7) #21
  ret void
}

; Function Attrs: alwaysinline mustprogress nounwind uwtable
define linkonce_odr dso_local noundef i32 @_ZNKSt13__atomic_baseIiE4loadESt12memory_order(ptr noundef nonnull align 4 dereferenceable(4) %0, i32 noundef %1) #11 comdat align 2 {
  %3 = alloca ptr, align 8
  %4 = alloca i32, align 4
  %5 = alloca i32, align 4
  %6 = alloca i32, align 4
  store ptr %0, ptr %3, align 8, !tbaa !655
  store i32 %1, ptr %4, align 4, !tbaa !601
  %7 = load ptr, ptr %3, align 8
  call void @llvm.lifetime.start.p0(i64 4, ptr %5) #21
  %8 = load i32, ptr %4, align 4, !tbaa !601
  %9 = call noundef i32 @_ZStanSt12memory_orderSt23__memory_order_modifier(i32 noundef %8, i32 noundef 65535)
  store i32 %9, ptr %5, align 4, !tbaa !601
  br label %10

10:                                               ; preds = %2
  br label %11

11:                                               ; preds = %10
  br label %12

12:                                               ; preds = %11
  br label %13

13:                                               ; preds = %12
  br label %14

14:                                               ; preds = %13
  br label %15

15:                                               ; preds = %14
  %16 = getelementptr inbounds nuw %"struct.std::__atomic_base.73", ptr %7, i32 0, i32 0
  %17 = load i32, ptr %4, align 4, !tbaa !601
  switch i32 %17, label %18 [
    i32 1, label %20
    i32 2, label %20
    i32 5, label %22
  ]

18:                                               ; preds = %15
  %19 = load atomic i32, ptr %16 monotonic, align 4
  store i32 %19, ptr %6, align 4
  br label %24

20:                                               ; preds = %15, %15
  %21 = load atomic i32, ptr %16 acquire, align 4
  store i32 %21, ptr %6, align 4
  br label %24

22:                                               ; preds = %15
  %23 = load atomic i32, ptr %16 seq_cst, align 4
  store i32 %23, ptr %6, align 4
  br label %24

24:                                               ; preds = %22, %20, %18
  %25 = load i32, ptr %6, align 4, !tbaa !15
  call void @llvm.lifetime.end.p0(i64 4, ptr %5) #21
  ret i32 %25
}

; Function Attrs: inlinehint mustprogress nounwind uwtable
define linkonce_odr dso_local noundef zeroext i1 @_ZN4CGAL28is_currently_single_threadedEv() #5 comdat {
  %1 = load i8, ptr @__libc_single_threaded, align 1, !tbaa !139
  %2 = icmp ne i8 %1, 0
  ret i1 %2
}

; Function Attrs: noinline noreturn nounwind uwtable
define linkonce_odr hidden void @__clang_call_terminate(ptr noundef %0) #19 comdat {
  %2 = call ptr @__cxa_begin_catch(ptr %0) #21
  call void @_ZSt9terminatev() #33
  unreachable
}

; Function Attrs: mustprogress nounwind uwtable
define linkonce_odr dso_local void @_ZN4CGAL6Handle6decrefEv(ptr noundef nonnull align 8 dereferenceable(8) %0) #1 comdat align 2 {
  %2 = alloca ptr, align 8
  %3 = alloca i32, align 4
  store ptr %0, ptr %2, align 8, !tbaa !96
  %4 = load ptr, ptr %2, align 8
  %5 = call noundef zeroext i1 @_ZN4CGAL28is_currently_single_threadedEv()
  br i1 %5, label %6, label %29

6:                                                ; preds = %1
  call void @llvm.lifetime.start.p0(i64 4, ptr %3) #21
  %7 = getelementptr inbounds nuw %"class.CGAL::Handle", ptr %4, i32 0, i32 0
  %8 = load ptr, ptr %7, align 8, !tbaa !652
  %9 = getelementptr inbounds nuw %"class.CGAL::Rep", ptr %8, i32 0, i32 1
  %10 = call noundef i32 @_ZNKSt13__atomic_baseIiE4loadESt12memory_order(ptr noundef nonnull align 4 dereferenceable(4) %9, i32 noundef 0) #21
  store i32 %10, ptr %3, align 4, !tbaa !15
  %11 = load i32, ptr %3, align 4, !tbaa !15
  %12 = icmp eq i32 %11, 1
  br i1 %12, label %13, label %22

13:                                               ; preds = %6
  %14 = getelementptr inbounds nuw %"class.CGAL::Handle", ptr %4, i32 0, i32 0
  %15 = load ptr, ptr %14, align 8, !tbaa !652
  %16 = icmp eq ptr %15, null
  br i1 %16, label %21, label %17

17:                                               ; preds = %13
  %18 = load ptr, ptr %15, align 8, !tbaa !53
  %19 = getelementptr inbounds ptr, ptr %18, i64 1
  %20 = load ptr, ptr %19, align 8
  call void %20(ptr noundef nonnull align 8 dereferenceable(12) %15) #21
  br label %21

21:                                               ; preds = %17, %13
  br label %28

22:                                               ; preds = %6
  %23 = getelementptr inbounds nuw %"class.CGAL::Handle", ptr %4, i32 0, i32 0
  %24 = load ptr, ptr %23, align 8, !tbaa !652
  %25 = getelementptr inbounds nuw %"class.CGAL::Rep", ptr %24, i32 0, i32 1
  %26 = load i32, ptr %3, align 4, !tbaa !15
  %27 = sub nsw i32 %26, 1
  call void @_ZNSt13__atomic_baseIiE5storeEiSt12memory_order(ptr noundef nonnull align 4 dereferenceable(4) %25, i32 noundef %27, i32 noundef 0) #21
  br label %28

28:                                               ; preds = %22, %21
  call void @llvm.lifetime.end.p0(i64 4, ptr %3) #21
  br label %51

29:                                               ; preds = %1
  %30 = getelementptr inbounds nuw %"class.CGAL::Handle", ptr %4, i32 0, i32 0
  %31 = load ptr, ptr %30, align 8, !tbaa !652
  %32 = getelementptr inbounds nuw %"class.CGAL::Rep", ptr %31, i32 0, i32 1
  %33 = call noundef i32 @_ZNKSt13__atomic_baseIiE4loadESt12memory_order(ptr noundef nonnull align 4 dereferenceable(4) %32, i32 noundef 0) #21
  %34 = icmp eq i32 %33, 1
  br i1 %34, label %41, label %35

35:                                               ; preds = %29
  %36 = getelementptr inbounds nuw %"class.CGAL::Handle", ptr %4, i32 0, i32 0
  %37 = load ptr, ptr %36, align 8, !tbaa !652
  %38 = getelementptr inbounds nuw %"class.CGAL::Rep", ptr %37, i32 0, i32 1
  %39 = call noundef i32 @_ZNSt13__atomic_baseIiE9fetch_subEiSt12memory_order(ptr noundef nonnull align 4 dereferenceable(4) %38, i32 noundef 1, i32 noundef 3) #21
  %40 = icmp eq i32 %39, 1
  br i1 %40, label %41, label %50

41:                                               ; preds = %35, %29
  call void @_ZSt19atomic_thread_fenceSt12memory_order(i32 noundef 2) #21
  %42 = getelementptr inbounds nuw %"class.CGAL::Handle", ptr %4, i32 0, i32 0
  %43 = load ptr, ptr %42, align 8, !tbaa !652
  %44 = icmp eq ptr %43, null
  br i1 %44, label %49, label %45

45:                                               ; preds = %41
  %46 = load ptr, ptr %43, align 8, !tbaa !53
  %47 = getelementptr inbounds ptr, ptr %46, i64 1
  %48 = load ptr, ptr %47, align 8
  call void %48(ptr noundef nonnull align 8 dereferenceable(12) %43) #21
  br label %49

49:                                               ; preds = %45, %41
  br label %50

50:                                               ; preds = %49, %35
  br label %51

51:                                               ; preds = %50, %28
  ret void
}

; Function Attrs: mustprogress nounwind uwtable
define linkonce_odr dso_local void @_ZNK4CGAL6Handle6increfEv(ptr noundef nonnull align 8 dereferenceable(8) %0) #1 comdat align 2 personality ptr @__gxx_personality_v0 {
  %2 = alloca ptr, align 8
  store ptr %0, ptr %2, align 8, !tbaa !96
  %3 = load ptr, ptr %2, align 8
  %4 = invoke noundef zeroext i1 @_ZN4CGAL28is_currently_single_threadedEv()
          to label %5 unwind label %21

5:                                                ; preds = %1
  br i1 %4, label %6, label %15

6:                                                ; preds = %5
  %7 = getelementptr inbounds nuw %"class.CGAL::Handle", ptr %3, i32 0, i32 0
  %8 = load ptr, ptr %7, align 8, !tbaa !652
  %9 = getelementptr inbounds nuw %"class.CGAL::Rep", ptr %8, i32 0, i32 1
  %10 = getelementptr inbounds nuw %"class.CGAL::Handle", ptr %3, i32 0, i32 0
  %11 = load ptr, ptr %10, align 8, !tbaa !652
  %12 = getelementptr inbounds nuw %"class.CGAL::Rep", ptr %11, i32 0, i32 1
  %13 = call noundef i32 @_ZNKSt13__atomic_baseIiE4loadESt12memory_order(ptr noundef nonnull align 4 dereferenceable(4) %12, i32 noundef 0) #21
  %14 = add nsw i32 %13, 1
  call void @_ZNSt13__atomic_baseIiE5storeEiSt12memory_order(ptr noundef nonnull align 4 dereferenceable(4) %9, i32 noundef %14, i32 noundef 0) #21
  br label %20

15:                                               ; preds = %5
  %16 = getelementptr inbounds nuw %"class.CGAL::Handle", ptr %3, i32 0, i32 0
  %17 = load ptr, ptr %16, align 8, !tbaa !652
  %18 = getelementptr inbounds nuw %"class.CGAL::Rep", ptr %17, i32 0, i32 1
  %19 = call noundef i32 @_ZNSt13__atomic_baseIiE9fetch_addEiSt12memory_order(ptr noundef nonnull align 4 dereferenceable(4) %18, i32 noundef 1, i32 noundef 0) #21
  br label %20

20:                                               ; preds = %15, %6
  ret void

21:                                               ; preds = %1
  %22 = landingpad { ptr, i32 }
          catch ptr null
  %23 = extractvalue { ptr, i32 } %22, 0
  call void @__clang_call_terminate(ptr %23) #33
  unreachable
}

; Function Attrs: mustprogress nounwind uwtable
define linkonce_odr dso_local noundef nonnull align 8 dereferenceable(8) ptr @_ZN4CGAL6HandleaSERKS0_(ptr noundef nonnull align 8 dereferenceable(8) %0, ptr noundef nonnull align 8 dereferenceable(8) %1) #1 comdat align 2 personality ptr @__gxx_personality_v0 {
  %3 = alloca ptr, align 8
  %4 = alloca ptr, align 8
  store ptr %0, ptr %3, align 8, !tbaa !96
  store ptr %1, ptr %4, align 8, !tbaa !96
  %5 = load ptr, ptr %3, align 8
  %6 = load ptr, ptr %4, align 8, !tbaa !96
  call void @_ZNK4CGAL6Handle6increfEv(ptr noundef nonnull align 8 dereferenceable(8) %6) #21
  %7 = getelementptr inbounds nuw %"class.CGAL::Handle", ptr %5, i32 0, i32 0
  %8 = load ptr, ptr %7, align 8, !tbaa !652
  %9 = icmp ne ptr %8, null
  br i1 %9, label %10, label %12

10:                                               ; preds = %2
  invoke void @_ZN4CGAL6Handle6decrefEv(ptr noundef nonnull align 8 dereferenceable(8) %5)
          to label %11 unwind label %17

11:                                               ; preds = %10
  br label %12

12:                                               ; preds = %11, %2
  %13 = load ptr, ptr %4, align 8, !tbaa !96
  %14 = getelementptr inbounds nuw %"class.CGAL::Handle", ptr %13, i32 0, i32 0
  %15 = load ptr, ptr %14, align 8, !tbaa !652
  %16 = getelementptr inbounds nuw %"class.CGAL::Handle", ptr %5, i32 0, i32 0
  store ptr %15, ptr %16, align 8, !tbaa !652
  ret ptr %5

17:                                               ; preds = %10
  %18 = landingpad { ptr, i32 }
          catch ptr null
  %19 = extractvalue { ptr, i32 } %18, 0
  call void @__clang_call_terminate(ptr %19) #33
  unreachable
}

; Function Attrs: inlinehint mustprogress nounwind uwtable
define linkonce_odr dso_local noundef nonnull align 8 dereferenceable(8) ptr @_ZN4CGAL4LazyINS_11Interval_ntILb0EEEN5boost14multiprecision6numberINS4_8backends16rational_adaptorINS6_15cpp_int_backendILm0ELm0ELNS4_16cpp_integer_typeE1ELNS4_18cpp_int_check_typeE0ESaIyEEEEELNS4_26expression_template_optionE1EEENS_11To_intervalISF_EEEaSERKSI_(ptr noundef nonnull align 8 dereferenceable(8) %0, ptr noundef nonnull align 8 dereferenceable(8) %1) #5 comdat align 2 {
  %3 = alloca ptr, align 8
  %4 = alloca ptr, align 8
  store ptr %0, ptr %3, align 8, !tbaa !89
  store ptr %1, ptr %4, align 8, !tbaa !89
  %5 = load ptr, ptr %3, align 8
  %6 = load ptr, ptr %4, align 8, !tbaa !89
  %7 = call noundef nonnull align 8 dereferenceable(8) ptr @_ZN4CGAL6HandleaSERKS0_(ptr noundef nonnull align 8 dereferenceable(8) %5, ptr noundef nonnull align 8 dereferenceable(8) %6) #21
  ret ptr %5
}

; Function Attrs: inlinehint mustprogress nounwind uwtable
define linkonce_odr dso_local noundef nonnull align 8 dereferenceable(9) ptr @_ZN4CGAL13Lazy_exact_ntIN5boost14multiprecision6numberINS2_8backends16rational_adaptorINS4_15cpp_int_backendILm0ELm0ELNS2_16cpp_integer_typeE1ELNS2_18cpp_int_check_typeE0ESaIyEEEEELNS2_26expression_template_optionE1EEEEaSERKSE_(ptr noundef nonnull align 8 dereferenceable(9) %0, ptr noundef nonnull align 8 dereferenceable(9) %1) #5 comdat align 2 {
  %3 = alloca ptr, align 8
  %4 = alloca ptr, align 8
  store ptr %0, ptr %3, align 8, !tbaa !78
  store ptr %1, ptr %4, align 8, !tbaa !78
  %5 = load ptr, ptr %3, align 8
  %6 = load ptr, ptr %4, align 8, !tbaa !78
  %7 = call noundef nonnull align 8 dereferenceable(8) ptr @_ZN4CGAL4LazyINS_11Interval_ntILb0EEEN5boost14multiprecision6numberINS4_8backends16rational_adaptorINS6_15cpp_int_backendILm0ELm0ELNS4_16cpp_integer_typeE1ELNS4_18cpp_int_check_typeE0ESaIyEEEEELNS4_26expression_template_optionE1EEENS_11To_intervalISF_EEEaSERKSI_(ptr noundef nonnull align 8 dereferenceable(8) %5, ptr noundef nonnull align 8 dereferenceable(8) %6) #21
  ret ptr %5
}

; Function Attrs: mustprogress nounwind uwtable
define dso_local void @_ZN3igl8copyleft4cgal13assign_scalarERKN4CGAL13Lazy_exact_ntIN5boost14multiprecision6numberINS5_8backends16rational_adaptorINS7_15cpp_int_backendILm0ELm0ELNS5_16cpp_integer_typeE1ELNS5_18cpp_int_check_typeE0ESaIyEEEEELNS5_26expression_template_optionE1EEEEERSH_(ptr noundef nonnull align 8 dereferenceable(9) %0, ptr noundef nonnull align 8 dereferenceable(9) %1) #1 {
  %3 = alloca ptr, align 8
  %4 = alloca ptr, align 8
  store ptr %0, ptr %3, align 8, !tbaa !78
  store ptr %1, ptr %4, align 8, !tbaa !78
  %5 = load ptr, ptr %3, align 8, !tbaa !78
  %6 = load ptr, ptr %4, align 8, !tbaa !78
  %7 = call noundef nonnull align 8 dereferenceable(9) ptr @_ZN4CGAL13Lazy_exact_ntIN5boost14multiprecision6numberINS2_8backends16rational_adaptorINS4_15cpp_int_backendILm0ELm0ELNS2_16cpp_integer_typeE1ELNS2_18cpp_int_check_typeE0ESaIyEEEEELNS2_26expression_template_optionE1EEEEaSERKSE_(ptr noundef nonnull align 8 dereferenceable(9) %6, ptr noundef nonnull align 8 dereferenceable(9) %5) #21
  ret void
}