; Function Attrs: mustprogress nounwind uwtable
define dso_local void @_ZN3igl8copyleft4cgal13assign_scalarERKN4CGAL13Lazy_exact_ntIN5boost14multiprecision6numberINS5_8backends16rational_adaptorINS7_15cpp_int_backendILm0ELm0ELNS5_16cpp_integer_typeE1ELNS5_18cpp_int_check_typeE0ESaIyEEEEELNS5_26expression_template_optionE1EEEEERSH_(ptr noundef nonnull readonly align 8 captures(none) dereferenceable(9) %0, ptr noundef nonnull align 8 captures(none) dereferenceable(9) %1) local_unnamed_addr #3 personality ptr @__gxx_personality_v0 {
  %3 = load i8, ptr @__libc_single_threaded, align 1, !tbaa !58
  %.not.i.i.i.i = icmp eq i8 %3, 0
  %4 = load ptr, ptr %0, align 8, !tbaa !82
  %5 = getelementptr inbounds nuw i8, ptr %4, i64 8
  br i1 %.not.i.i.i.i, label %_ZNK4CGAL6Handle6increfEv.exit.i.i.i, label %_ZNK4CGAL6Handle6increfEv.exit.thread.i.i.i

_ZNK4CGAL6Handle6increfEv.exit.i.i.i:             ; preds = %2
  %6 = atomicrmw add ptr %5, i32 1 monotonic, align 4
  %7 = load ptr, ptr %1, align 8, !tbaa !82
  %.not.i.i.i = icmp eq ptr %7, null
  br i1 %.not.i.i.i, label %_ZN4CGAL13Lazy_exact_ntIN5boost14multiprecision6numberINS2_8backends16rational_adaptorINS4_15cpp_int_backendILm0ELm0ELNS2_16cpp_integer_typeE1ELNS2_18cpp_int_check_typeE0ESaIyEEEEELNS2_26expression_template_optionE1EEEEaSERKSE_.exit, label %20

_ZNK4CGAL6Handle6increfEv.exit.thread.i.i.i:      ; preds = %2
  %8 = load atomic i32, ptr %5 monotonic, align 4
  %9 = add nsw i32 %8, 1
  store atomic i32 %9, ptr %5 monotonic, align 4
  %10 = load ptr, ptr %1, align 8, !tbaa !82
  %.not4.i.i.i = icmp eq ptr %10, null
  br i1 %.not4.i.i.i, label %_ZN4CGAL13Lazy_exact_ntIN5boost14multiprecision6numberINS2_8backends16rational_adaptorINS4_15cpp_int_backendILm0ELm0ELNS2_16cpp_integer_typeE1ELNS2_18cpp_int_check_typeE0ESaIyEEEEELNS2_26expression_template_optionE1EEEEaSERKSE_.exit, label %.thread.i.i.i

.thread.i.i.i:                                    ; preds = %_ZNK4CGAL6Handle6increfEv.exit.thread.i.i.i
  %11 = getelementptr inbounds nuw i8, ptr %10, i64 8
  %12 = load atomic i32, ptr %11 monotonic, align 4
  %13 = icmp eq i32 %12, 1
  br i1 %13, label %14, label %18

14:                                               ; preds = %.thread.i.i.i
  %15 = load ptr, ptr %10, align 8, !tbaa !20
  %16 = getelementptr inbounds nuw i8, ptr %15, i64 8
  %17 = load ptr, ptr %16, align 8
  tail call void %17(ptr noundef nonnull align 8 dereferenceable(12) %10) #25
  br label %_ZN4CGAL13Lazy_exact_ntIN5boost14multiprecision6numberINS2_8backends16rational_adaptorINS4_15cpp_int_backendILm0ELm0ELNS2_16cpp_integer_typeE1ELNS2_18cpp_int_check_typeE0ESaIyEEEEELNS2_26expression_template_optionE1EEEEaSERKSE_.exit

18:                                               ; preds = %.thread.i.i.i
  %19 = add nsw i32 %12, -1
  store atomic i32 %19, ptr %11 monotonic, align 4
  br label %_ZN4CGAL13Lazy_exact_ntIN5boost14multiprecision6numberINS2_8backends16rational_adaptorINS4_15cpp_int_backendILm0ELm0ELNS2_16cpp_integer_typeE1ELNS2_18cpp_int_check_typeE0ESaIyEEEEELNS2_26expression_template_optionE1EEEEaSERKSE_.exit

20:                                               ; preds = %_ZNK4CGAL6Handle6increfEv.exit.i.i.i
  %21 = getelementptr inbounds nuw i8, ptr %7, i64 8
  %22 = load atomic i32, ptr %21 monotonic, align 4
  %23 = icmp eq i32 %22, 1
  br i1 %23, label %27, label %24

24:                                               ; preds = %20
  %25 = atomicrmw sub ptr %21, i32 1 release, align 4
  %26 = icmp eq i32 %25, 1
  br i1 %26, label %27, label %_ZN4CGAL13Lazy_exact_ntIN5boost14multiprecision6numberINS2_8backends16rational_adaptorINS4_15cpp_int_backendILm0ELm0ELNS2_16cpp_integer_typeE1ELNS2_18cpp_int_check_typeE0ESaIyEEEEELNS2_26expression_template_optionE1EEEEaSERKSE_.exit

27:                                               ; preds = %24, %20
  fence acquire
  %28 = load ptr, ptr %1, align 8, !tbaa !82
  %29 = icmp eq ptr %28, null
  br i1 %29, label %_ZN4CGAL13Lazy_exact_ntIN5boost14multiprecision6numberINS2_8backends16rational_adaptorINS4_15cpp_int_backendILm0ELm0ELNS2_16cpp_integer_typeE1ELNS2_18cpp_int_check_typeE0ESaIyEEEEELNS2_26expression_template_optionE1EEEEaSERKSE_.exit, label %30

30:                                               ; preds = %27
  %31 = load ptr, ptr %28, align 8, !tbaa !20
  %32 = getelementptr inbounds nuw i8, ptr %31, i64 8
  %33 = load ptr, ptr %32, align 8
  tail call void %33(ptr noundef nonnull align 8 dereferenceable(12) %28) #25
  br label %_ZN4CGAL13Lazy_exact_ntIN5boost14multiprecision6numberINS2_8backends16rational_adaptorINS4_15cpp_int_backendILm0ELm0ELNS2_16cpp_integer_typeE1ELNS2_18cpp_int_check_typeE0ESaIyEEEEELNS2_26expression_template_optionE1EEEEaSERKSE_.exit

_ZN4CGAL13Lazy_exact_ntIN5boost14multiprecision6numberINS2_8backends16rational_adaptorINS4_15cpp_int_backendILm0ELm0ELNS2_16cpp_integer_typeE1ELNS2_18cpp_int_check_typeE0ESaIyEEEEELNS2_26expression_template_optionE1EEEEaSERKSE_.exit: ; preds = %_ZNK4CGAL6Handle6increfEv.exit.i.i.i, %_ZNK4CGAL6Handle6increfEv.exit.thread.i.i.i, %14, %18, %24, %27, %30
  %34 = load ptr, ptr %0, align 8, !tbaa !82
  store ptr %34, ptr %1, align 8, !tbaa !82
  ret void
}